; Function Attrs: nounwind uwtable
define ptr @l_Array_mapMUnsafe_map___at_Lean_Elab_PartialFixpoint_deriveInduction___spec__11(ptr noundef %0, i64 noundef %1, i64 noundef %2, ptr noundef %3) local_unnamed_addr #0 {
  %.not50 = icmp ult i64 %2, %1
  br i1 %.not50, label %.lr.ph, label %._crit_edge

.lr.ph:                                           ; preds = %4, %69
  %.02352 = phi i64 [ %49, %69 ], [ %2, %4 ]
  %.02551 = phi ptr [ %.0.i.i37, %69 ], [ %3, %4 ]
  %5 = getelementptr inbounds nuw i8, ptr %.02551, i64 24
  %6 = getelementptr inbounds nuw [0 x ptr], ptr %5, i64 0, i64 %.02352
  %7 = load ptr, ptr %6, align 8, !tbaa !9
  %8 = ptrtoint ptr %7 to i64
  %9 = and i64 %8, 1
  %.not.i31 = icmp eq i64 %9, 0
  br i1 %.not.i31, label %10, label %lean_array_uget.exit

10:                                               ; preds = %.lr.ph
  %.val.i.i = load i32, ptr %7, align 4, !tbaa !4
  %11 = icmp sgt i32 %.val.i.i, 0
  br i1 %11, label %12, label %14, !prof !14

12:                                               ; preds = %10
  %13 = add nuw i32 %.val.i.i, 1
  store i32 %13, ptr %7, align 4, !tbaa !4
  br label %lean_array_uget.exit

14:                                               ; preds = %10
  %.not.i.i = icmp eq i32 %.val.i.i, 0
  br i1 %.not.i.i, label %lean_array_uget.exit, label %15

15:                                               ; preds = %14
  tail call void @lean_inc_ref_cold(ptr noundef nonnull %7) #6
  br label %lean_array_uget.exit

lean_array_uget.exit:                             ; preds = %.lr.ph, %12, %14, %15
  %.val.i.i32 = load i32, ptr %.02551, align 4, !tbaa !4
  %16 = icmp eq i32 %.val.i.i32, 1
  br i1 %16, label %lean_ensure_exclusive_array.exit.i, label %17

17:                                               ; preds = %lean_array_uget.exit
  %18 = tail call ptr @lean_copy_expand_array(ptr noundef nonnull %.02551, i1 noundef zeroext false) #6
  br label %lean_ensure_exclusive_array.exit.i

lean_ensure_exclusive_array.exit.i:               ; preds = %17, %lean_array_uget.exit
  %.0.i.i = phi ptr [ %18, %17 ], [ %.02551, %lean_array_uget.exit ]
  %19 = getelementptr inbounds nuw i8, ptr %.0.i.i, i64 24
  %20 = getelementptr inbounds nuw ptr, ptr %19, i64 %.02352
  %21 = load ptr, ptr %20, align 8, !tbaa !9
  %22 = ptrtoint ptr %21 to i64
  %23 = and i64 %22, 1
  %.not.i33 = icmp eq i64 %23, 0
  br i1 %.not.i33, label %24, label %lean_array_uset.exit

24:                                               ; preds = %lean_ensure_exclusive_array.exit.i
  %25 = load i32, ptr %21, align 4, !tbaa !4
  %26 = icmp sgt i32 %25, 1
  br i1 %26, label %27, label %29, !prof !14

27:                                               ; preds = %24
  %28 = add nsw i32 %25, -1
  store i32 %28, ptr %21, align 4, !tbaa !4
  br label %lean_array_uset.exit

29:                                               ; preds = %24
  %.not.i.i34 = icmp eq i32 %25, 0
  br i1 %.not.i.i34, label %lean_array_uset.exit, label %30

30:                                               ; preds = %29
  tail call void @lean_dec_ref_cold(ptr noundef nonnull %21) #6
  br label %lean_array_uset.exit

lean_array_uset.exit:                             ; preds = %lean_ensure_exclusive_array.exit.i, %27, %29, %30
  store ptr inttoptr (i64 1 to ptr), ptr %20, align 8, !tbaa !9
  %31 = tail call ptr @l_Lean_Expr_fvarId_x21(ptr noundef %7) #6
  br i1 %.not.i31, label %32, label %lean_dec.exit28

32:                                               ; preds = %lean_array_uset.exit
  %33 = load i32, ptr %7, align 4, !tbaa !4
  %34 = icmp sgt i32 %33, 1
  br i1 %34, label %35, label %37, !prof !14

35:                                               ; preds = %32
  %36 = add nsw i32 %33, -1
  store i32 %36, ptr %7, align 4, !tbaa !4
  br label %lean_dec.exit28

37:                                               ; preds = %32
  %.not.i = icmp eq i32 %33, 0
  br i1 %.not.i, label %lean_dec.exit28, label %38

38:                                               ; preds = %37
  tail call void @lean_dec_ref_cold(ptr noundef nonnull %7) #6
  br label %lean_dec.exit28

lean_dec.exit28:                                  ; preds = %38, %37, %35, %lean_array_uset.exit
  %39 = tail call zeroext i8 @l_Lean_Expr_hasAnyFVar_visit___at_Lean_Expr_containsFVar___spec__1(ptr noundef %31, ptr noundef %0) #6
  %40 = ptrtoint ptr %31 to i64
  %41 = and i64 %40, 1
  %.not49 = icmp eq i64 %41, 0
  br i1 %.not49, label %42, label %lean_dec.exit

42:                                               ; preds = %lean_dec.exit28
  %43 = load i32, ptr %31, align 4, !tbaa !4
  %44 = icmp sgt i32 %43, 1
  br i1 %44, label %45, label %47, !prof !14

45:                                               ; preds = %42
  %46 = add nsw i32 %43, -1
  store i32 %46, ptr %31, align 4, !tbaa !4
  br label %lean_dec.exit

47:                                               ; preds = %42
  %.not.i29 = icmp eq i32 %43, 0
  br i1 %.not.i29, label %lean_dec.exit, label %48

48:                                               ; preds = %47
  tail call void @lean_dec_ref_cold(ptr noundef nonnull %31) #6
  br label %lean_dec.exit

lean_dec.exit:                                    ; preds = %48, %47, %45, %lean_dec.exit28
  %49 = add nuw i64 %.02352, 1
  %50 = zext i8 %39 to i64
  %51 = shl nuw nsw i64 %50, 1
  %52 = or disjoint i64 %51, 1
  %53 = inttoptr i64 %52 to ptr
  %.val.i.i35 = load i32, ptr %.0.i.i, align 4, !tbaa !4
  %54 = icmp eq i32 %.val.i.i35, 1
  br i1 %54, label %lean_ensure_exclusive_array.exit.i36, label %55

55:                                               ; preds = %lean_dec.exit
  %56 = tail call ptr @lean_copy_expand_array(ptr noundef nonnull %.0.i.i, i1 noundef zeroext false) #6
  br label %lean_ensure_exclusive_array.exit.i36

lean_ensure_exclusive_array.exit.i36:             ; preds = %55, %lean_dec.exit
  %.0.i.i37 = phi ptr [ %56, %55 ], [ %.0.i.i, %lean_dec.exit ]
  %57 = getelementptr inbounds nuw i8, ptr %.0.i.i37, i64 24
  %58 = getelementptr inbounds nuw ptr, ptr %57, i64 %.02352
  %59 = load ptr, ptr %58, align 8, !tbaa !9
  %60 = ptrtoint ptr %59 to i64
  %61 = and i64 %60, 1
  %.not.i38 = icmp eq i64 %61, 0
  br i1 %.not.i38, label %62, label %69

62:                                               ; preds = %lean_ensure_exclusive_array.exit.i36
  %63 = load i32, ptr %59, align 4, !tbaa !4
  %64 = icmp sgt i32 %63, 1
  br i1 %64, label %65, label %67, !prof !14

65:                                               ; preds = %62
  %66 = add nsw i32 %63, -1
  store i32 %66, ptr %59, align 4, !tbaa !4
  br label %69

67:                                               ; preds = %62
  %.not.i.i39 = icmp eq i32 %63, 0
  br i1 %.not.i.i39, label %69, label %68

68:                                               ; preds = %67
  tail call void @lean_dec_ref_cold(ptr noundef nonnull %59) #6
  br label %69

69:                                               ; preds = %68, %67, %65, %lean_ensure_exclusive_array.exit.i36
  store ptr %53, ptr %58, align 8, !tbaa !9
  %exitcond.not = icmp eq i64 %49, %1
  br i1 %exitcond.not, label %._crit_edge, label %.lr.ph

._crit_edge:                                      ; preds = %69, %4
  %.025.lcssa = phi ptr [ %3, %4 ], [ %.0.i.i37, %69 ]
  ret ptr %.025.lcssa
}